(lp0
VMMM
p1
aVABT
p2
aVABBV
p3
aVABMD
p4
aVACN
p5
aVATVI
p6
aVADBE
p7
aVAMD
p8
aVAAP
p9
aVAES
p10
aVAFL
p11
aVA
p12
aVAPD
p13
aVAKAM
p14
aVALK
p15
aVALB
p16
aVARE
p17
aVALXN
p18
aVALGN
p19
aVALLE
p20
aVAGN
p21
aVADS
p22
aVLNT
p23
aVALL
p24
aVGOOGL
p25
aVGOOG
p26
aVMO
p27
aVAMZN
p28
aVAMCR
p29
aVAEE
p30
aVAAL
p31
aVAEP
p32
aVAXP
p33
aVAIG
p34
aVT
p35
aVAMT
p36
aVAWK
p37
aVAMP
p38
aVABC
p39
aVAME
p40
aVAMGN
p41
aVAPH
p42
aVADI
p43
aVANSS
p44
aVANTM
p45
aVAON
p46
aVAOS
p47
aVAPA
p48
aVAIV
p49
aVAAPL
p50
aVAMAT
p51
aVAPTV
p52
aVADM
p53
aVARNC
p54
aVANET
p55
aVAJG
p56
aVAIZ
p57
aVATO
p58
aVADSK
p59
aVADP
p60
aVAZO
p61
aVAVB
p62
aVAVY
p63
aVBKR
p64
aVBLL
p65
aVBAC
p66
aVBK
p67
aVBAX
p68
aVBDX
p69
aVBRK.B
p70
aVBBY
p71
aVBIIB
p72
aVBLK
p73
aVBA
p74
aVBKNG
p75
aVBWA
p76
aVBXP
p77
aVBSX
p78
aVBMY
p79
aVAVGO
p80
aVBR
p81
aVBF.B
p82
aVCHRW
p83
aVCOG
p84
aVCDNS
p85
aVCPB
p86
aVCOF
p87
aVCPRI
p88
aVCAH
p89
aVKMX
p90
aVCCL
p91
aVCAT
p92
aVCBOE
p93
aVCBRE
p94
aVCDW
p95
aVCE
p96
aVCNC
p97
aVCNP
p98
aVCTL
p99
aVCERN
p100
aVCF
p101
aVSCHW
p102
aVCHTR
p103
aVCVX
p104
aVCMG
p105
aVCB
p106
aVCHD
p107
aVCI
p108
aVXEC
p109
aVCINF
p110
aVCTAS
p111
aVCSCO
p112
aVC
p113
aVCFG
p114
aVCTXS
p115
aVCLX
p116
aVCME
p117
aVCMS
p118
aVKO
p119
aVCTSH
p120
aVCL
p121
aVCMCSA
p122
aVCMA
p123
aVCAG
p124
aVCXO
p125
aVCOP
p126
aVED
p127
aVSTZ
p128
aVCOO
p129
aVCPRT
p130
aVGLW
p131
aVCTVA
p132
aVCOST
p133
aVCOTY
p134
aVCCI
p135
aVCSX
p136
aVCMI
p137
aVCVS
p138
aVDHI
p139
aVDHR
p140
aVDRI
p141
aVDVA
p142
aVDE
p143
aVDAL
p144
aVXRAY
p145
aVDVN
p146
aVFANG
p147
aVDLR
p148
aVDFS
p149
aVDISCA
p150
aVDISCK
p151
aVDISH
p152
aVDG
p153
aVDLTR
p154
aVD
p155
aVDOV
p156
aVDOW
p157
aVDTE
p158
aVDUK
p159
aVDRE
p160
aVDD
p161
aVDXC
p162
aVETFC
p163
aVEMN
p164
aVETN
p165
aVEBAY
p166
aVECL
p167
aVEIX
p168
aVEW
p169
aVEA
p170
aVEMR
p171
aVETR
p172
aVEOG
p173
aVEFX
p174
aVEQIX
p175
aVEQR
p176
aVESS
p177
aVEL
p178
aVEVRG
p179
aVES
p180
aVRE
p181
aVEXC
p182
aVEXPE
p183
aVEXPD
p184
aVEXR
p185
aVXOM
p186
aVFFIV
p187
aVFB
p188
aVFAST
p189
aVFRT
p190
aVFDX
p191
aVFIS
p192
aVFITB
p193
aVFE
p194
aVFRC
p195
aVFISV
p196
aVFLT
p197
aVFLIR
p198
aVFLS
p199
aVFMC
p200
aVF
p201
aVFTNT
p202
aVFTV
p203
aVFBHS
p204
aVFOXA
p205
aVFOX
p206
aVBEN
p207
aVFCX
p208
aVGPS
p209
aVGRMN
p210
aVIT
p211
aVGD
p212
aVGE
p213
aVGIS
p214
aVGM
p215
aVGPC
p216
aVGILD
p217
aVGL
p218
aVGPN
p219
aVGS
p220
aVGWW
p221
aVHRB
p222
aVHAL
p223
aVHBI
p224
aVHOG
p225
aVHIG
p226
aVHAS
p227
aVHCA
p228
aVPEAK
p229
aVHP
p230
aVHSIC
p231
aVHSY
p232
aVHES
p233
aVHPE
p234
aVHLT
p235
aVHFC
p236
aVHOLX
p237
aVHD
p238
aVHON
p239
aVHRL
p240
aVHST
p241
aVHPQ
p242
aVHUM
p243
aVHBAN
p244
aVHII
p245
aVIEX
p246
aVIDXX
p247
aVINFO
p248
aVITW
p249
aVILMN
p250
aVINCY
p251
aVIR
p252
aVINTC
p253
aVICE
p254
aVIBM
p255
aVIP
p256
aVIPG
p257
aVIFF
p258
aVINTU
p259
aVISRG
p260
aVIVZ
p261
aVIPGP
p262
aVIQV
p263
aVIRM
p264
aVJKHY
p265
aVJ
p266
aVJBHT
p267
aVSJM
p268
aVJNJ
p269
aVJCI
p270
aVJPM
p271
aVJNPR
p272
aVKSU
p273
aVK
p274
aVKEY
p275
aVKEYS
p276
aVKMB
p277
aVKIM
p278
aVKMI
p279
aVKLAC
p280
aVKSS
p281
aVKHC
p282
aVKR
p283
aVLB
p284
aVLHX
p285
aVLH
p286
aVLRCX
p287
aVLW
p288
aVLVS
p289
aVLEG
p290
aVLDOS
p291
aVLEN
p292
aVLLY
p293
aVLNC
p294
aVLIN
p295
aVLYV
p296
aVLKQ
p297
aVLMT
p298
aVL
p299
aVLOW
p300
aVLYB
p301
aVMTB
p302
aVM
p303
aVMRO
p304
aVMPC
p305
aVMKTX
p306
aVMAR
p307
aVMMC
p308
aVMLM
p309
aVMAS
p310
aVMA
p311
aVMKC
p312
aVMXIM
p313
aVMCD
p314
aVMCK
p315
aVMDT
p316
aVMRK
p317
aVMET
p318
aVMTD
p319
aVMGM
p320
aVMCHP
p321
aVMU
p322
aVMSFT
p323
aVMAA
p324
aVMHK
p325
aVTAP
p326
aVMDLZ
p327
aVMNST
p328
aVMCO
p329
aVMS
p330
aVMOS
p331
aVMSI
p332
aVMSCI
p333
aVMYL
p334
aVNDAQ
p335
aVNOV
p336
aVNTAP
p337
aVNFLX
p338
aVNWL
p339
aVNEM
p340
aVNWSA
p341
aVNWS
p342
aVNEE
p343
aVNLSN
p344
aVNKE
p345
aVNI
p346
aVNBL
p347
aVJWN
p348
aVNSC
p349
aVNTRS
p350
aVNOC
p351
aVNLOK
p352
aVNCLH
p353
aVNRG
p354
aVNUE
p355
aVNVDA
p356
aVNVR
p357
aVORLY
p358
aVOXY
p359
aVODFL
p360
aVOMC
p361
aVOKE
p362
aVORCL
p363
aVPCAR
p364
aVPKG
p365
aVPH
p366
aVPAYX
p367
aVPAYC
p368
aVPYPL
p369
aVPNR
p370
aVPBCT
p371
aVPEP
p372
aVPKI
p373
aVPRGO
p374
aVPFE
p375
aVPM
p376
aVPSX
p377
aVPNW
p378
aVPXD
p379
aVPNC
p380
aVPPG
p381
aVPPL
p382
aVPFG
p383
aVPG
p384
aVPGR
p385
aVPLD
p386
aVPRU
p387
aVPEG
p388
aVPSA
p389
aVPHM
p390
aVPVH
p391
aVQRVO
p392
aVPWR
p393
aVQCOM
p394
aVDGX
p395
aVRL
p396
aVRJF
p397
aVRTN
p398
aVO
p399
aVREG
p400
aVREGN
p401
aVRF
p402
aVRSG
p403
aVRMD
p404
aVRHI
p405
aVROK
p406
aVROL
p407
aVROP
p408
aVROST
p409
aVRCL
p410
aVSPGI
p411
aVCRM
p412
aVSBAC
p413
aVSLB
p414
aVSTX
p415
aVSEE
p416
aVSRE
p417
aVNOW
p418
aVSHW
p419
aVSPG
p420
aVSWKS
p421
aVSLG
p422
aVSNA
p423
aVSO
p424
aVLUV
p425
aVSWK
p426
aVSBUX
p427
aVSTT
p428
aVSTE
p429
aVSYK
p430
aVSIVB
p431
aVSYF
p432
aVSNPS
p433
aVSYY
p434
aVTMUS
p435
aVTROW
p436
aVTTWO
p437
aVTPR
p438
aVTGT
p439
aVTEL
p440
aVFTI
p441
aVTFX
p442
aVTXN
p443
aVTXT
p444
aVTMO
p445
aVTIF
p446
aVTJX
p447
aVTSCO
p448
aVTDG
p449
aVTRV
p450
aVTFC
p451
aVTWTR
p452
aVTSN
p453
aVUDR
p454
aVULTA
p455
aVUSB
p456
aVUAA
p457
aVUA
p458
aVUNP
p459
aVUAL
p460
aVUNH
p461
aVUPS
p462
aVURI
p463
aVUTX
p464
aVUHS
p465
aVUNM
p466
aVVFC
p467
aVVLO
p468
aVVAR
p469
aVVTR
p470
aVVRSN
p471
aVVRSK
p472
aVVZ
p473
aVVRTX
p474
aVVIAC
p475
aVV
p476
aVVNO
p477
aVVMC
p478
aVWRB
p479
aVWAB
p480
aVWMT
p481
aVWBA
p482
aVDIS
p483
aVWM
p484
aVWAT
p485
aVWEC
p486
aVWFC
p487
aVWELL
p488
aVWDC
p489
aVWU
p490
aVWRK
p491
aVWY
p492
aVWHR
p493
aVWMB
p494
aVWLTW
p495
aVWYNN
p496
aVXEL
p497
aVXRX
p498
aVXLNX
p499
aVXYL
p500
aVYUM
p501
aVZBRA
p502
aVZBH
p503
aVZION
p504
aVZTS
p505
a.